; ModuleID = '52/5506.c'
source_filename = "52/5506.c"
target datalayout = "e-m:e-p270:32:32-p271:32:32-p272:64:64-i64:64-f80:128-n8:16:32:64-S128"
target triple = "x86_64-pc-linux-gnu"

@.str = private unnamed_addr constant [5 x i8] c"%d%d\00", align 1
@.str.1 = private unnamed_addr constant [3 x i8] c"%d\00", align 1
@.str.2 = private unnamed_addr constant [4 x i8] c" %d\00", align 1

; Function Attrs: noinline nounwind uwtable
define dso_local i32 @main() #0 {
  %1 = alloca i32, align 4
  %2 = alloca i32, align 4
  %3 = alloca i32, align 4
  %4 = alloca i32, align 4
  %5 = alloca [100 x i32], align 16
  %6 = alloca i32, align 4
  %7 = alloca i32, align 4
  %8 = alloca i32, align 4
  %9 = alloca i32, align 4
  %10 = alloca i32, align 4
  store i32 0, i32* %1, align 4
  store i32 0, i32* %6, align 4
  store i32 0, i32* %8, align 4
  store i32 0, i32* %10, align 4
  %11 = call i32 (i8*, ...) @__isoc99_scanf(i8* getelementptr inbounds ([5 x i8], [5 x i8]* @.str, i64 0, i64 0), i32* %2, i32* %3)
  store i32 0, i32* %4, align 4
  br label %12

12:                                               ; preds = %21, %0
  %13 = load i32, i32* %4, align 4
  %14 = load i32, i32* %2, align 4
  %15 = icmp slt i32 %13, %14
  br i1 %15, label %16, label %24

16:                                               ; preds = %12
  %17 = load i32, i32* %4, align 4
  %18 = sext i32 %17 to i64
  %19 = getelementptr inbounds [100 x i32], [100 x i32]* %5, i64 0, i64 %18
  %20 = call i32 (i8*, ...) @__isoc99_scanf(i8* getelementptr inbounds ([3 x i8], [3 x i8]* @.str.1, i64 0, i64 0), i32* %19)
  br label %21

21:                                               ; preds = %16
  %22 = load i32, i32* %4, align 4
  %23 = add nsw i32 %22, 1
  store i32 %23, i32* %4, align 4
  br label %12

24:                                               ; preds = %12
  %25 = load i32, i32* %2, align 4
  %26 = load i32, i32* %3, align 4
  %27 = srem i32 %25, %26
  %28 = icmp eq i32 %27, 0
  br i1 %28, label %29, label %86

29:                                               ; preds = %24
  %30 = load i32, i32* %2, align 4
  %31 = load i32, i32* %3, align 4
  %32 = sdiv i32 %30, %31
  store i32 %32, i32* %7, align 4
  store i32 0, i32* %4, align 4
  br label %33

33:                                               ; preds = %82, %29
  %34 = load i32, i32* %4, align 4
  %35 = load i32, i32* %3, align 4
  %36 = icmp slt i32 %34, %35
  br i1 %36, label %37, label %85

37:                                               ; preds = %33
  %38 = load i32, i32* %4, align 4
  store i32 %38, i32* %6, align 4
  br label %39

39:                                               ; preds = %64, %37
  %40 = load i32, i32* %8, align 4
  %41 = load i32, i32* %4, align 4
  %42 = icmp ne i32 %40, %41
  br i1 %42, label %46, label %43

43:                                               ; preds = %39
  %44 = load i32, i32* %10, align 4
  %45 = icmp eq i32 %44, 0
  br label %46

46:                                               ; preds = %43, %39
  %47 = phi i1 [ true, %39 ], [ %45, %43 ]
  br i1 %47, label %48, label %81

48:                                               ; preds = %46
  store i32 1, i32* %10, align 4
  %49 = load i32, i32* %6, align 4
  %50 = load i32, i32* %3, align 4
  %51 = add nsw i32 %49, %50
  %52 = load i32, i32* %2, align 4
  %53 = icmp slt i32 %51, %52
  br i1 %53, label %54, label %58

54:                                               ; preds = %48
  %55 = load i32, i32* %6, align 4
  %56 = load i32, i32* %3, align 4
  %57 = add nsw i32 %55, %56
  store i32 %57, i32* %8, align 4
  br label %64

58:                                               ; preds = %48
  %59 = load i32, i32* %6, align 4
  %60 = load i32, i32* %3, align 4
  %61 = add nsw i32 %59, %60
  %62 = load i32, i32* %2, align 4
  %63 = sub nsw i32 %61, %62
  store i32 %63, i32* %8, align 4
  br label %64

64:                                               ; preds = %58, %54
  %65 = load i32, i32* %8, align 4
  %66 = sext i32 %65 to i64
  %67 = getelementptr inbounds [100 x i32], [100 x i32]* %5, i64 0, i64 %66
  %68 = load i32, i32* %67, align 4
  store i32 %68, i32* %9, align 4
  %69 = load i32, i32* %4, align 4
  %70 = sext i32 %69 to i64
  %71 = getelementptr inbounds [100 x i32], [100 x i32]* %5, i64 0, i64 %70
  %72 = load i32, i32* %71, align 4
  %73 = load i32, i32* %8, align 4
  %74 = sext i32 %73 to i64
  %75 = getelementptr inbounds [100 x i32], [100 x i32]* %5, i64 0, i64 %74
  store i32 %72, i32* %75, align 4
  %76 = load i32, i32* %9, align 4
  %77 = load i32, i32* %4, align 4
  %78 = sext i32 %77 to i64
  %79 = getelementptr inbounds [100 x i32], [100 x i32]* %5, i64 0, i64 %78
  store i32 %76, i32* %79, align 4
  %80 = load i32, i32* %8, align 4
  store i32 %80, i32* %6, align 4
  br label %39

81:                                               ; preds = %46
  store i32 0, i32* %10, align 4
  store i32 0, i32* %6, align 4
  store i32 0, i32* %8, align 4
  br label %82

82:                                               ; preds = %81
  %83 = load i32, i32* %4, align 4
  %84 = add nsw i32 %83, 1
  store i32 %84, i32* %4, align 4
  br label %33

85:                                               ; preds = %33
  br label %123

86:                                               ; preds = %24
  store i32 0, i32* %10, align 4
  store i32 0, i32* %6, align 4
  br label %87

87:                                               ; preds = %107, %86
  %88 = load i32, i32* %10, align 4
  %89 = load i32, i32* %2, align 4
  %90 = icmp ne i32 %88, %89
  br i1 %90, label %91, label %122

91:                                               ; preds = %87
  %92 = load i32, i32* %6, align 4
  %93 = load i32, i32* %3, align 4
  %94 = add nsw i32 %92, %93
  %95 = load i32, i32* %2, align 4
  %96 = icmp slt i32 %94, %95
  br i1 %96, label %97, label %101

97:                                               ; preds = %91
  %98 = load i32, i32* %6, align 4
  %99 = load i32, i32* %3, align 4
  %100 = add nsw i32 %98, %99
  store i32 %100, i32* %8, align 4
  br label %107

101:                                              ; preds = %91
  %102 = load i32, i32* %6, align 4
  %103 = load i32, i32* %3, align 4
  %104 = add nsw i32 %102, %103
  %105 = load i32, i32* %2, align 4
  %106 = sub nsw i32 %104, %105
  store i32 %106, i32* %8, align 4
  br label %107

107:                                              ; preds = %101, %97
  %108 = load i32, i32* %8, align 4
  %109 = sext i32 %108 to i64
  %110 = getelementptr inbounds [100 x i32], [100 x i32]* %5, i64 0, i64 %109
  %111 = load i32, i32* %110, align 4
  store i32 %111, i32* %9, align 4
  %112 = getelementptr inbounds [100 x i32], [100 x i32]* %5, i64 0, i64 0
  %113 = load i32, i32* %112, align 16
  %114 = load i32, i32* %8, align 4
  %115 = sext i32 %114 to i64
  %116 = getelementptr inbounds [100 x i32], [100 x i32]* %5, i64 0, i64 %115
  store i32 %113, i32* %116, align 4
  %117 = load i32, i32* %9, align 4
  %118 = getelementptr inbounds [100 x i32], [100 x i32]* %5, i64 0, i64 0
  store i32 %117, i32* %118, align 16
  %119 = load i32, i32* %8, align 4
  store i32 %119, i32* %6, align 4
  %120 = load i32, i32* %10, align 4
  %121 = add nsw i32 %120, 1
  store i32 %121, i32* %10, align 4
  br label %87

122:                                              ; preds = %87
  br label %123

123:                                              ; preds = %122, %85
  %124 = getelementptr inbounds [100 x i32], [100 x i32]* %5, i64 0, i64 0
  %125 = load i32, i32* %124, align 16
  %126 = call i32 (i8*, ...) @printf(i8* getelementptr inbounds ([3 x i8], [3 x i8]* @.str.1, i64 0, i64 0), i32 %125)
  store i32 1, i32* %4, align 4
  br label %127

127:                                              ; preds = %137, %123
  %128 = load i32, i32* %4, align 4
  %129 = load i32, i32* %2, align 4
  %130 = icmp slt i32 %128, %129
  br i1 %130, label %131, label %140

131:                                              ; preds = %127
  %132 = load i32, i32* %4, align 4
  %133 = sext i32 %132 to i64
  %134 = getelementptr inbounds [100 x i32], [100 x i32]* %5, i64 0, i64 %133
  %135 = load i32, i32* %134, align 4
  %136 = call i32 (i8*, ...) @printf(i8* getelementptr inbounds ([4 x i8], [4 x i8]* @.str.2, i64 0, i64 0), i32 %135)
  br label %137

137:                                              ; preds = %131
  %138 = load i32, i32* %4, align 4
  %139 = add nsw i32 %138, 1
  store i32 %139, i32* %4, align 4
  br label %127

140:                                              ; preds = %127
  ret i32 0
}

declare dso_local i32 @__isoc99_scanf(i8*, ...) #1

declare dso_local i32 @printf(i8*, ...) #1


!llvm.module.flags = !{!0}
!llvm.ident = !{!1}

!0 = !{i32 1, !"wchar_size", i32 4}
!1 = !{!"clang version 10.0.0-4ubuntu1 "}
